target datalayout = "e-m:e-p270:32:32-p271:32:32-p272:64:64-i64:64-i128:128-f80:128-n8:16:32:64-S128"
target triple = "x86_64-pc-linux-gnu"

%struct._per_sequence_t = type { ptr, i32, i32, ptr }
%struct._asn1_ctx_t = type { i32, i32, i8, ptr, ptr, ptr, ptr, ptr, %struct.anon, %struct.anon.2, %struct.anon.3, ptr }
%struct.anon = type { i32, i8, i8, i8, ptr, ptr, i32, i32, ptr, ptr, ptr, %union.anon }
%union.anon = type { %struct.anon.0 }
%struct.anon.0 = type { ptr }
%struct.anon.2 = type { ptr, ptr, ptr }
%struct.anon.3 = type { i32, i8, ptr, i32, i32, ptr, ptr, ptr, %union.anon.4 }
%union.anon.4 = type { %struct.anon.5 }
%struct.anon.5 = type { ptr }
%struct._packet_info = type { ptr, ptr, i32, i32, %struct.nstime_t, %struct.nstime_t, %struct.nstime_t, i8, ptr, ptr, ptr, ptr, %struct._address, %struct._address, %struct._address, %struct._address, %struct._address, %struct._address, i32, ptr, i8, [3 x i8], %struct.anon.7, i32, i32, i32, i32, ptr, i8, ptr, ptr, i16, i16, i32, i32, i16, i32, i32, ptr, ptr, ptr, i8, i8, i16, i16, i16, i32, i16, i16, ptr, ptr, ptr, ptr, ptr, i32, i32 }
%struct.nstime_t = type { i64, i32 }
%struct._address = type { i32, i32, ptr, ptr }
%struct.anon.7 = type { i8, [3 x i8] }
%struct.ngap_private_data = type { ptr, i32, i32, i32, i32, i32, i8, i8, i8, ptr, ptr, i32, i32, i8, ptr }
%struct.ngap_tap_t = type { i32 }

@proto_ngap = internal global i32 0, align 4
@hf_ngap_PDUSessionResourceReleaseResponse_PDU = internal global i32 0, align 4
@ett_ngap_PDUSessionResourceReleaseResponse = internal global i32 0, align 4
@.str.3479 = private unnamed_addr constant [6 x i8] c" (%s)\00", align 1
@.str.3482 = private unnamed_addr constant [8 x i8] c"Unknown\00", align 1
@top_tree = internal global ptr null, align 8
@PDUSessionResourceReleaseResponse_sequence = internal constant [2 x %struct._per_sequence_t] [%struct._per_sequence_t { ptr @hf_ngap_protocolIEs, i32 1, i32 0, ptr @dissect_ngap_ProtocolIE_Container }, %struct._per_sequence_t zeroinitializer], align 16

; Function Attrs: null_pointer_is_valid sspstrong uwtable
define internal ptr @ngap_get_private_data(ptr noundef %0) #0 {
  %2 = alloca ptr, align 8
  %3 = alloca ptr, align 8
  store ptr %0, ptr %2, align 8
  call void @llvm.lifetime.start.p0(i64 8, ptr %3) #11
  %4 = load ptr, ptr %2, align 8
  %5 = getelementptr inbounds nuw %struct._packet_info, ptr %4, i32 0, i32 51
  %6 = load ptr, ptr %5, align 8
  %7 = load ptr, ptr %2, align 8
  %8 = load i32, ptr @proto_ngap, align 4
  %9 = call ptr @p_get_proto_data(ptr noundef %6, ptr noundef %7, i32 noundef %8, i32 noundef 0)
  store ptr %9, ptr %3, align 8
  %10 = load ptr, ptr %3, align 8
  %11 = icmp ne ptr %10, null
  br i1 %11, label %27, label %12

12:                                               ; preds = %1
  %13 = load ptr, ptr %2, align 8
  %14 = getelementptr inbounds nuw %struct._packet_info, ptr %13, i32 0, i32 51
  %15 = load ptr, ptr %14, align 8
  %16 = call noalias ptr @wmem_alloc0(ptr noundef %15, i64 noundef 72) #12
  store ptr %16, ptr %3, align 8
  %17 = load ptr, ptr %3, align 8
  %18 = getelementptr inbounds nuw %struct.ngap_private_data, ptr %17, i32 0, i32 5
  store i32 -1, ptr %18, align 8
  %19 = load ptr, ptr %3, align 8
  %20 = getelementptr inbounds nuw %struct.ngap_private_data, ptr %19, i32 0, i32 13
  store i8 -1, ptr %20, align 8
  %21 = load ptr, ptr %2, align 8
  %22 = getelementptr inbounds nuw %struct._packet_info, ptr %21, i32 0, i32 51
  %23 = load ptr, ptr %22, align 8
  %24 = load ptr, ptr %2, align 8
  %25 = load i32, ptr @proto_ngap, align 4
  %26 = load ptr, ptr %3, align 8
  call void @p_add_proto_data(ptr noundef %23, ptr noundef %24, i32 noundef %25, i32 noundef 0, ptr noundef %26)
  br label %27

27:                                               ; preds = %12, %1
  %28 = load ptr, ptr %3, align 8
  call void @llvm.lifetime.end.p0(i64 8, ptr %3) #11
  ret ptr %28
}

; Function Attrs: null_pointer_is_valid sspstrong uwtable
define internal void @set_stats_message_type(ptr noundef %0, i32 noundef %1) #0 {
  %3 = alloca ptr, align 8
  %4 = alloca i32, align 4
  %5 = alloca ptr, align 8
  store ptr %0, ptr %3, align 8
  store i32 %1, ptr %4, align 4
  call void @llvm.lifetime.start.p0(i64 8, ptr %5) #11
  %6 = load ptr, ptr %3, align 8
  %7 = call ptr @ngap_get_private_data(ptr noundef %6)
  store ptr %7, ptr %5, align 8
  %8 = load i32, ptr %4, align 4
  %9 = load ptr, ptr %5, align 8
  %10 = getelementptr inbounds nuw %struct.ngap_private_data, ptr %9, i32 0, i32 14
  %11 = load ptr, ptr %10, align 8
  %12 = getelementptr inbounds nuw %struct.ngap_tap_t, ptr %11, i32 0, i32 0
  store i32 %8, ptr %12, align 4
  call void @llvm.lifetime.end.p0(i64 8, ptr %5) #11
  ret void
}

; Function Attrs: null_pointer_is_valid sspstrong uwtable
define internal void @set_message_label(ptr noundef %0, i32 noundef %1) #0 {
  %3 = alloca ptr, align 8
  %4 = alloca i32, align 4
  %5 = alloca ptr, align 8
  store ptr %0, ptr %3, align 8
  store i32 %1, ptr %4, align 4
  call void @llvm.lifetime.start.p0(i64 8, ptr %5) #11
  %6 = load i32, ptr %4, align 4
  %7 = call ptr @val_to_str_const(i32 noundef %6, ptr noundef @mtype_names, ptr noundef @.str.3482)
  store ptr %7, ptr %5, align 8
  %8 = load ptr, ptr %3, align 8
  %9 = getelementptr inbounds nuw %struct._asn1_ctx_t, ptr %8, i32 0, i32 3
  %10 = load ptr, ptr %9, align 8
  %11 = getelementptr inbounds nuw %struct._packet_info, ptr %10, i32 0, i32 1
  %12 = load ptr, ptr %11, align 8
  %13 = load ptr, ptr %5, align 8
  call void @col_append_sep_str(ptr noundef %12, i32 noundef 25, ptr noundef null, ptr noundef %13)
  %14 = load ptr, ptr @top_tree, align 8
  %15 = load ptr, ptr %5, align 8
  call void (ptr, ptr, ...) @proto_item_append_text(ptr noundef %14, ptr noundef @.str.3479, ptr noundef %15)
  call void @llvm.lifetime.end.p0(i64 8, ptr %5) #11
  ret void
}

; Function Attrs: null_pointer_is_valid sspstrong uwtable
define internal i32 @dissect_ngap_PDUSessionResourceReleaseResponse(ptr noundef %0, i32 noundef %1, ptr noundef %2, ptr noundef %3, i32 noundef %4) #0 {
  %6 = alloca ptr, align 8
  %7 = alloca i32, align 4
  %8 = alloca ptr, align 8
  %9 = alloca ptr, align 8
  %10 = alloca i32, align 4
  store ptr %0, ptr %6, align 8
  store i32 %1, ptr %7, align 4
  store ptr %2, ptr %8, align 8
  store ptr %3, ptr %9, align 8
  store i32 %4, ptr %10, align 4
  %11 = load ptr, ptr %8, align 8
  call void @set_message_label(ptr noundef %11, i32 noundef 80)
  %12 = load ptr, ptr %8, align 8
  %13 = getelementptr inbounds nuw %struct._asn1_ctx_t, ptr %12, i32 0, i32 3
  %14 = load ptr, ptr %13, align 8
  call void @set_stats_message_type(ptr noundef %14, i32 noundef 80)
  %15 = load ptr, ptr %6, align 8
  %16 = load i32, ptr %7, align 4
  %17 = load ptr, ptr %8, align 8
  %18 = load ptr, ptr %9, align 8
  %19 = load i32, ptr %10, align 4
  %20 = load i32, ptr @ett_ngap_PDUSessionResourceReleaseResponse, align 4
  %21 = call i32 @dissect_per_sequence(ptr noundef %15, i32 noundef %16, ptr noundef %17, ptr noundef %18, i32 noundef %19, i32 noundef %20, ptr noundef @PDUSessionResourceReleaseResponse_sequence)
  store i32 %21, ptr %7, align 4
  %22 = load i32, ptr %7, align 4
  ret i32 %22
}

; Function Attrs: null_pointer_is_valid sspstrong uwtable
define internal i32 @dissect_PDUSessionResourceReleaseResponse_PDU(ptr noundef %0, ptr noundef %1, ptr noundef %2, ptr noundef %3) #0 {
  %5 = alloca ptr, align 8
  %6 = alloca ptr, align 8
  %7 = alloca ptr, align 8
  %8 = alloca ptr, align 8
  %9 = alloca i32, align 4
  %10 = alloca %struct._asn1_ctx_t, align 8
  store ptr %0, ptr %5, align 8
  store ptr %1, ptr %6, align 8
  store ptr %2, ptr %7, align 8
  store ptr %3, ptr %8, align 8
  call void @llvm.lifetime.start.p0(i64 4, ptr %9) #11
  store i32 0, ptr %9, align 4
  call void @llvm.lifetime.start.p0(i64 208, ptr %10) #11
  %11 = load ptr, ptr %6, align 8
  call void @asn1_ctx_init(ptr noundef %10, i32 noundef 1, i1 noundef zeroext true, ptr noundef %11)
  %12 = load ptr, ptr %5, align 8
  %13 = load i32, ptr %9, align 4
  %14 = load ptr, ptr %7, align 8
  %15 = load i32, ptr @hf_ngap_PDUSessionResourceReleaseResponse_PDU, align 4
  %16 = call i32 @dissect_ngap_PDUSessionResourceReleaseResponse(ptr noundef %12, i32 noundef %13, ptr noundef %10, ptr noundef %14, i32 noundef %15)
  store i32 %16, ptr %9, align 4
  %17 = load i32, ptr %9, align 4
  %18 = add i32 %17, 7
  store i32 %18, ptr %9, align 4
  %19 = load i32, ptr %9, align 4
  %20 = ashr i32 %19, 3
  store i32 %20, ptr %9, align 4
  %21 = load i32, ptr %9, align 4
  call void @llvm.lifetime.end.p0(i64 208, ptr %10) #11
  call void @llvm.lifetime.end.p0(i64 4, ptr %9) #11
  ret i32 %21
}